TN:
SF:/workspace/github/compiler/src/ast/ast.cpp
FN:6,_ZN5astra27forceInstantiateDestructorsEv
FN:56,_ZZN5astra27forceInstantiateDestructorsEvEN11TestVisitor5visitERNS_7ProgramE
FN:57,_ZZN5astra27forceInstantiateDestructorsEvEN11TestVisitor5visitERNS_17LiteralExpressionE
FN:58,_ZZN5astra27forceInstantiateDestructorsEvEN11TestVisitor5visitERNS_20IdentifierExpressionE
FN:59,_ZZN5astra27forceInstantiateDestructorsEvEN11TestVisitor5visitERNS_15UnaryExpressionE
FN:60,_ZZN5astra27forceInstantiateDestructorsEvEN11TestVisitor5visitERNS_16BinaryExpressionE
FN:61,_ZZN5astra27forceInstantiateDestructorsEvEN11TestVisitor5visitERNS_14CallExpressionE
FN:62,_ZZN5astra27forceInstantiateDestructorsEvEN11TestVisitor5visitERNS_16MemberExpressionE
FN:63,_ZZN5astra27forceInstantiateDestructorsEvEN11TestVisitor5visitERNS_15ArrayExpressionE
FN:64,_ZZN5astra27forceInstantiateDestructorsEvEN11TestVisitor5visitERNS_19ExpressionStatementE
FN:65,_ZZN5astra27forceInstantiateDestructorsEvEN11TestVisitor5visitERNS_14BlockStatementE
FN:66,_ZZN5astra27forceInstantiateDestructorsEvEN11TestVisitor5visitERNS_19VariableDeclarationE
FN:67,_ZZN5astra27forceInstantiateDestructorsEvEN11TestVisitor5visitERNS_19FunctionDeclarationE
FN:68,_ZZN5astra27forceInstantiateDestructorsEvEN11TestVisitor5visitERNS_11IfStatementE
FN:69,_ZZN5astra27forceInstantiateDestructorsEvEN11TestVisitor5visitERNS_14WhileStatementE
FN:70,_ZZN5astra27forceInstantiateDestructorsEvEN11TestVisitor5visitERNS_12ForStatementE
FN:71,_ZZN5astra27forceInstantiateDestructorsEvEN11TestVisitor5visitERNS_15ReturnStatementE
FN:72,_ZZN5astra27forceInstantiateDestructorsEvEN11TestVisitor5visitERNS_14BreakStatementE
FN:73,_ZZN5astra27forceInstantiateDestructorsEvEN11TestVisitor5visitERNS_17ContinueStatementE
FN:74,_ZZN5astra27forceInstantiateDestructorsEvEN11TestVisitor5visitERNS_15ImportStatementE
FN:75,_ZZN5astra27forceInstantiateDestructorsEvEN11TestVisitor5visitERNS_17ModuleDeclarationE
FN:76,_ZZN5astra27forceInstantiateDestructorsEvEN11TestVisitor5visitERNS_12TryStatementE
FN:77,_ZZN5astra27forceInstantiateDestructorsEvEN11TestVisitor5visitERNS_14ThrowStatementE
FN:78,_ZZN5astra27forceInstantiateDestructorsEvEN11TestVisitor5visitERNS_15TaskDeclarationE
FN:79,_ZZN5astra27forceInstantiateDestructorsEvEN11TestVisitor5visitERNS_19AnnotationStatementE
FN:80,_ZZN5astra27forceInstantiateDestructorsEvEN11TestVisitor5visitERNS_10SimpleTypeE
FN:81,_ZZN5astra27forceInstantiateDestructorsEvEN11TestVisitor5visitERNS_9ArrayTypeE
FN:82,_ZZN5astra27forceInstantiateDestructorsEvEN11TestVisitor5visitERNS_9RangeTypeE
FN:83,_ZZN5astra27forceInstantiateDestructorsEvEN11TestVisitor5visitERNS_12FunctionTypeE
FNDA:0,_ZZN5astra27forceInstantiateDestructorsEvEN11TestVisitor5visitERNS_12FunctionTypeE
FNDA:0,_ZZN5astra27forceInstantiateDestructorsEvEN11TestVisitor5visitERNS_12TryStatementE
FNDA:0,_ZZN5astra27forceInstantiateDestructorsEvEN11TestVisitor5visitERNS_17LiteralExpressionE
FNDA:0,_ZZN5astra27forceInstantiateDestructorsEvEN11TestVisitor5visitERNS_9RangeTypeE
FNDA:0,_ZZN5astra27forceInstantiateDestructorsEvEN11TestVisitor5visitERNS_14ThrowStatementE
FNDA:0,_ZZN5astra27forceInstantiateDestructorsEvEN11TestVisitor5visitERNS_12ForStatementE
FNDA:0,_ZZN5astra27forceInstantiateDestructorsEvEN11TestVisitor5visitERNS_17ContinueStatementE
FNDA:0,_ZZN5astra27forceInstantiateDestructorsEvEN11TestVisitor5visitERNS_15ArrayExpressionE
FNDA:0,_ZZN5astra27forceInstantiateDestructorsEvEN11TestVisitor5visitERNS_17ModuleDeclarationE
FNDA:0,_ZZN5astra27forceInstantiateDestructorsEvEN11TestVisitor5visitERNS_16MemberExpressionE
FNDA:2,_ZN5astra27forceInstantiateDestructorsEv
FNDA:0,_ZZN5astra27forceInstantiateDestructorsEvEN11TestVisitor5visitERNS_19FunctionDeclarationE
FNDA:0,_ZZN5astra27forceInstantiateDestructorsEvEN11TestVisitor5visitERNS_11IfStatementE
FNDA:0,_ZZN5astra27forceInstantiateDestructorsEvEN11TestVisitor5visitERNS_9ArrayTypeE
FNDA:0,_ZZN5astra27forceInstantiateDestructorsEvEN11TestVisitor5visitERNS_16BinaryExpressionE
FNDA:0,_ZZN5astra27forceInstantiateDestructorsEvEN11TestVisitor5visitERNS_19ExpressionStatementE
FNDA:0,_ZZN5astra27forceInstantiateDestructorsEvEN11TestVisitor5visitERNS_15ReturnStatementE
FNDA:0,_ZZN5astra27forceInstantiateDestructorsEvEN11TestVisitor5visitERNS_14BlockStatementE
FNDA:0,_ZZN5astra27forceInstantiateDestructorsEvEN11TestVisitor5visitERNS_19AnnotationStatementE
FNDA:0,_ZZN5astra27forceInstantiateDestructorsEvEN11TestVisitor5visitERNS_20IdentifierExpressionE
FNDA:0,_ZZN5astra27forceInstantiateDestructorsEvEN11TestVisitor5visitERNS_15UnaryExpressionE
FNDA:0,_ZZN5astra27forceInstantiateDestructorsEvEN11TestVisitor5visitERNS_15TaskDeclarationE
FNDA:0,_ZZN5astra27forceInstantiateDestructorsEvEN11TestVisitor5visitERNS_10SimpleTypeE
FNDA:0,_ZZN5astra27forceInstantiateDestructorsEvEN11TestVisitor5visitERNS_7ProgramE
FNDA:0,_ZZN5astra27forceInstantiateDestructorsEvEN11TestVisitor5visitERNS_19VariableDeclarationE
FNDA:0,_ZZN5astra27forceInstantiateDestructorsEvEN11TestVisitor5visitERNS_14CallExpressionE
FNDA:0,_ZZN5astra27forceInstantiateDestructorsEvEN11TestVisitor5visitERNS_14BreakStatementE
FNDA:0,_ZZN5astra27forceInstantiateDestructorsEvEN11TestVisitor5visitERNS_14WhileStatementE
FNDA:0,_ZZN5astra27forceInstantiateDestructorsEvEN11TestVisitor5visitERNS_15ImportStatementE
FNF:29
FNH:1
DA:6,2
DA:16,4
DA:17,4
DA:18,2
DA:24,8
DA:25,4
DA:27,6
DA:28,2
DA:34,4
DA:35,6
DA:36,4
DA:39,4
DA:40,6
DA:41,2
DA:47,4
DA:49,6
DA:50,2
DA:56,0
DA:57,0
DA:58,0
DA:59,0
DA:60,0
DA:61,0
DA:62,0
DA:63,0
DA:64,0
DA:65,0
DA:66,0
DA:67,0
DA:68,0
DA:69,0
DA:70,0
DA:71,0
DA:72,0
DA:73,0
DA:74,0
DA:75,0
DA:76,0
DA:77,0
DA:78,0
DA:79,0
DA:80,0
DA:81,0
DA:82,0
DA:83,0
DA:87,2
DA:88,2
DA:90,2
LF:48
LH:20
end_of_record
TN:
SF:/workspace/github/compiler/src/ast/ast.h
FN:29,_ZN5astra7ASTNodeD0Ev
FN:29,_ZN5astra7ASTNodeD2Ev
FN:38,_ZN5astra10ExpressionD0Ev
FN:38,_ZN5astra10ExpressionD2Ev
FN:48,_ZN5astra17LiteralExpressionC2ERKNS_5TokenE
FN:61,_ZN5astra20IdentifierExpressionC2ERKNS_5TokenERKNSt7__cxx1112basic_stringIcSt11char_traitsIcESaIcEEE
FN:74,_ZN5astra15UnaryExpressionC2ERKNS_5TokenESt10shared_ptrINS_10ExpressionEE
FN:89,_ZN5astra16BinaryExpressionC2ERKNS_5TokenESt10shared_ptrINS_10ExpressionEES6_
FN:104,_ZN5astra14CallExpressionC2ESt10shared_ptrINS_10ExpressionEESt6vectorIS3_SaIS3_EERKNS_5TokenE
FN:121,_ZN5astra16MemberExpressionC2ESt10shared_ptrINS_10ExpressionEERKNS_5TokenES1_INS_20IdentifierExpressionEE
FN:137,_ZN5astra15ArrayExpressionC2ERKNS_5TokenESt6vectorISt10shared_ptrINS_10ExpressionEESaIS7_EE
FN:148,_ZN5astra9StatementD2Ev
FN:148,_ZN5astra9StatementD0Ev
FN:156,_ZN5astra11DeclarationD0Ev
FN:156,_ZN5astra11DeclarationD2Ev
FN:166,_ZN5astra19ExpressionStatementC2ESt10shared_ptrINS_10ExpressionEE
FN:179,_ZN5astra14BlockStatementC2ERKNS_5TokenESt6vectorISt10shared_ptrINS_9StatementEESaIS7_EE
FN:196,_ZN5astra19VariableDeclarationC2ERKNS_5TokenESt10shared_ptrINS_20IdentifierExpressionEES4_INS_4TypeEES4_INS_10ExpressionEEb
FN:218,_ZN5astra19FunctionDeclarationC2ERKNS_5TokenESt10shared_ptrINS_20IdentifierExpressionEESt6vectorIS4_INS_19VariableDeclarationEESaIS9_EES4_INS_4TypeEES4_INS_14BlockStatementEES7_IS4_INS_9StatementEESaISH_EE
FN:240,_ZN5astra11IfStatementC2ERKNS_5TokenESt10shared_ptrINS_10ExpressionEES4_INS_9StatementEES8_
FN:259,_ZN5astra14WhileStatementC2ERKNS_5TokenESt10shared_ptrINS_10ExpressionEES4_INS_9StatementEE
FN:277,_ZN5astra12ForStatementC2ERKNS_5TokenESt10shared_ptrINS_20IdentifierExpressionEES4_INS_10ExpressionEES4_INS_9StatementEE
FN:294,_ZN5astra15ReturnStatementC2ERKNS_5TokenESt10shared_ptrINS_10ExpressionEE
FN:307,_ZN5astra14BreakStatementC2ERKNS_5TokenE
FN:319,_ZN5astra17ContinueStatementC2ERKNS_5TokenE
FN:332,_ZN5astra15ImportStatementC2ERKNS_5TokenERKSt6vectorINSt7__cxx1112basic_stringIcSt11char_traitsIcESaIcEEESaISA_EE
FN:347,_ZN5astra17ModuleDeclarationC2ERKNS_5TokenESt10shared_ptrINS_20IdentifierExpressionEESt6vectorIS4_INS_11DeclarationEESaIS9_EE
FN:365,_ZN5astra12TryStatementC2ERKNS_5TokenESt10shared_ptrINS_14BlockStatementEESt6vectorISt4pairIS4_INS_19VariableDeclarationEES6_ESaISB_EES6_
FN:383,_ZN5astra14ThrowStatementC2ERKNS_5TokenESt10shared_ptrINS_10ExpressionEE
FN:400,_ZN5astra15TaskDeclarationC2ERKNS_5TokenESt10shared_ptrINS_20IdentifierExpressionEESt6vectorIS4_INS_19VariableDeclarationEESaIS9_EES4_INS_14BlockStatementEES7_IS4_INS_9StatementEESaISF_EE
FN:420,_ZN5astra19AnnotationStatementC2ERKNS_5TokenESt10shared_ptrINS_20IdentifierExpressionEESt6vectorIS4_INS_10ExpressionEESaIS9_EE
FN:433,_ZN5astra4TypeD0Ev
FN:433,_ZN5astra4TypeD2Ev
FN:445,_ZN5astra10SimpleTypeC2ERKNS_5TokenERKNSt7__cxx1112basic_stringIcSt11char_traitsIcESaIcEEE
FN:448,_ZNK5astra10SimpleType8toStringB5cxx11Ev
FN:459,_ZN5astra9ArrayTypeC2ESt10shared_ptrINS_4TypeEERKNS_5TokenE
FN:463,_ZNK5astra9ArrayType8toStringB5cxx11Ev
FN:476,_ZN5astra9RangeTypeC2ESt10shared_ptrINS_4TypeEES1_INS_10ExpressionEES5_RKNS_5TokenE
FN:483,_ZNK5astra9RangeType8toStringB5cxx11Ev
FN:497,_ZN5astra12FunctionTypeC2ESt6vectorISt10shared_ptrINS_4TypeEESaIS4_EES4_RKNS_5TokenE
FN:503,_ZNK5astra12FunctionType8toStringB5cxx11Ev
FN:523,_ZN5astra7ProgramC2ESt6vectorISt10shared_ptrINS_9StatementEESaIS4_EE
FN:533,_ZN5astra10ASTVisitorD0Ev
FN:533,_ZN5astra10ASTVisitorD2Ev
FN:566,_ZN5astra17LiteralExpression6acceptERNS_10ASTVisitorE
FN:567,_ZN5astra20IdentifierExpression6acceptERNS_10ASTVisitorE
FN:568,_ZN5astra15UnaryExpression6acceptERNS_10ASTVisitorE
FN:569,_ZN5astra16BinaryExpression6acceptERNS_10ASTVisitorE
FN:570,_ZN5astra14CallExpression6acceptERNS_10ASTVisitorE
FN:571,_ZN5astra16MemberExpression6acceptERNS_10ASTVisitorE
FN:572,_ZN5astra15ArrayExpression6acceptERNS_10ASTVisitorE
FN:573,_ZN5astra19ExpressionStatement6acceptERNS_10ASTVisitorE
FN:574,_ZN5astra14BlockStatement6acceptERNS_10ASTVisitorE
FN:575,_ZN5astra19VariableDeclaration6acceptERNS_10ASTVisitorE
FN:576,_ZN5astra19FunctionDeclaration6acceptERNS_10ASTVisitorE
FN:577,_ZN5astra11IfStatement6acceptERNS_10ASTVisitorE
FN:578,_ZN5astra14WhileStatement6acceptERNS_10ASTVisitorE
FN:579,_ZN5astra12ForStatement6acceptERNS_10ASTVisitorE
FN:580,_ZN5astra15ReturnStatement6acceptERNS_10ASTVisitorE
FN:581,_ZN5astra14BreakStatement6acceptERNS_10ASTVisitorE
FN:582,_ZN5astra17ContinueStatement6acceptERNS_10ASTVisitorE
FN:583,_ZN5astra15ImportStatement6acceptERNS_10ASTVisitorE
FN:584,_ZN5astra17ModuleDeclaration6acceptERNS_10ASTVisitorE
FN:585,_ZN5astra12TryStatement6acceptERNS_10ASTVisitorE
FN:586,_ZN5astra14ThrowStatement6acceptERNS_10ASTVisitorE
FN:587,_ZN5astra15TaskDeclaration6acceptERNS_10ASTVisitorE
FN:588,_ZN5astra19AnnotationStatement6acceptERNS_10ASTVisitorE
FN:589,_ZN5astra10SimpleType6acceptERNS_10ASTVisitorE
FN:590,_ZN5astra9ArrayType6acceptERNS_10ASTVisitorE
FN:591,_ZN5astra9RangeType6acceptERNS_10ASTVisitorE
FN:592,_ZN5astra12FunctionType6acceptERNS_10ASTVisitorE
FN:593,_ZN5astra7Program6acceptERNS_10ASTVisitorE
FNDA:77,_ZN5astra4TypeD2Ev
FNDA:87,_ZN5astra20IdentifierExpressionC2ERKNS_5TokenERKNSt7__cxx1112basic_stringIcSt11char_traitsIcESaIcEEE
FNDA:5,_ZN5astra15TaskDeclarationC2ERKNS_5TokenESt10shared_ptrINS_20IdentifierExpressionEESt6vectorIS4_INS_19VariableDeclarationEESaIS9_EES4_INS_14BlockStatementEES7_IS4_INS_9StatementEESaISF_EE
FNDA:5,_ZN5astra9RangeTypeC2ESt10shared_ptrINS_4TypeEES1_INS_10ExpressionEES5_RKNS_5TokenE
FNDA:5,_ZNK5astra9RangeType8toStringB5cxx11Ev
FNDA:5,_ZN5astra17LiteralExpression6acceptERNS_10ASTVisitorE
FNDA:12,_ZN5astra17ModuleDeclarationC2ERKNS_5TokenESt10shared_ptrINS_20IdentifierExpressionEESt6vectorIS4_INS_11DeclarationEESaIS9_EE
FNDA:5,_ZN5astra12ForStatementC2ERKNS_5TokenESt10shared_ptrINS_20IdentifierExpressionEES4_INS_10ExpressionEES4_INS_9StatementEE
FNDA:5,_ZN5astra19VariableDeclaration6acceptERNS_10ASTVisitorE
FNDA:5,_ZN5astra19FunctionDeclaration6acceptERNS_10ASTVisitorE
FNDA:271,_ZN5astra10ExpressionD2Ev
FNDA:5,_ZN5astra11IfStatementC2ERKNS_5TokenESt10shared_ptrINS_10ExpressionEES4_INS_9StatementEES8_
FNDA:0,_ZN5astra7ASTNodeD0Ev
FNDA:5,_ZN5astra12FunctionType6acceptERNS_10ASTVisitorE
FNDA:5,_ZN5astra14WhileStatementC2ERKNS_5TokenESt10shared_ptrINS_10ExpressionEES4_INS_9StatementEE
FNDA:5,_ZN5astra15UnaryExpressionC2ERKNS_5TokenESt10shared_ptrINS_10ExpressionEE
FNDA:5,_ZN5astra14CallExpressionC2ESt10shared_ptrINS_10ExpressionEESt6vectorIS3_SaIS3_EERKNS_5TokenE
FNDA:5,_ZN5astra9ArrayType6acceptERNS_10ASTVisitorE
FNDA:5,_ZN5astra14CallExpression6acceptERNS_10ASTVisitorE
FNDA:0,_ZN5astra9StatementD0Ev
FNDA:5,_ZN5astra12ForStatement6acceptERNS_10ASTVisitorE
FNDA:557,_ZN5astra7ASTNodeD2Ev
FNDA:5,_ZN5astra19AnnotationStatementC2ERKNS_5TokenESt10shared_ptrINS_20IdentifierExpressionEESt6vectorIS4_INS_10ExpressionEESaIS9_EE
FNDA:147,_ZN5astra10ASTVisitorD2Ev
FNDA:30,_ZNK5astra10SimpleType8toStringB5cxx11Ev
FNDA:5,_ZN5astra16MemberExpressionC2ESt10shared_ptrINS_10ExpressionEERKNS_5TokenES1_INS_20IdentifierExpressionEE
FNDA:5,_ZN5astra15ArrayExpression6acceptERNS_10ASTVisitorE
FNDA:5,_ZN5astra16BinaryExpression6acceptERNS_10ASTVisitorE
FNDA:5,_ZN5astra10SimpleType6acceptERNS_10ASTVisitorE
FNDA:5,_ZN5astra9RangeType6acceptERNS_10ASTVisitorE
FNDA:5,_ZN5astra7Program6acceptERNS_10ASTVisitorE
FNDA:10,_ZN5astra15ReturnStatementC2ERKNS_5TokenESt10shared_ptrINS_10ExpressionEE
FNDA:5,_ZN5astra14BreakStatement6acceptERNS_10ASTVisitorE
FNDA:5,_ZNK5astra9ArrayType8toStringB5cxx11Ev
FNDA:5,_ZN5astra20IdentifierExpression6acceptERNS_10ASTVisitorE
FNDA:5,_ZN5astra17ModuleDeclaration6acceptERNS_10ASTVisitorE
FNDA:5,_ZN5astra11IfStatement6acceptERNS_10ASTVisitorE
FNDA:5,_ZN5astra19AnnotationStatement6acceptERNS_10ASTVisitorE
FNDA:5,_ZN5astra12TryStatementC2ERKNS_5TokenESt10shared_ptrINS_14BlockStatementEESt6vectorISt4pairIS4_INS_19VariableDeclarationEES6_ESaISB_EES6_
FNDA:5,_ZN5astra17ContinueStatement6acceptERNS_10ASTVisitorE
FNDA:5,_ZN5astra12TryStatement6acceptERNS_10ASTVisitorE
FNDA:5,_ZN5astra15ImportStatement6acceptERNS_10ASTVisitorE
FNDA:5,_ZN5astra14WhileStatement6acceptERNS_10ASTVisitorE
FNDA:5,_ZNK5astra12FunctionType8toStringB5cxx11Ev
FNDA:72,_ZN5astra19ExpressionStatementC2ESt10shared_ptrINS_10ExpressionEE
FNDA:5,_ZN5astra15UnaryExpression6acceptERNS_10ASTVisitorE
FNDA:5,_ZN5astra15ReturnStatement6acceptERNS_10ASTVisitorE
FNDA:5,_ZN5astra12FunctionTypeC2ESt6vectorISt10shared_ptrINS_4TypeEESaIS4_EES4_RKNS_5TokenE
FNDA:62,_ZN5astra10SimpleTypeC2ERKNS_5TokenERKNSt7__cxx1112basic_stringIcSt11char_traitsIcESaIcEEE
FNDA:10,_ZN5astra7ProgramC2ESt6vectorISt10shared_ptrINS_9StatementEESaIS4_EE
FNDA:0,_ZN5astra11DeclarationD0Ev
FNDA:5,_ZN5astra16MemberExpression6acceptERNS_10ASTVisitorE
FNDA:30,_ZN5astra14BlockStatementC2ERKNS_5TokenESt6vectorISt10shared_ptrINS_9StatementEESaIS7_EE
FNDA:5,_ZN5astra14ThrowStatement6acceptERNS_10ASTVisitorE
FNDA:0,_ZN5astra10ExpressionD0Ev
FNDA:5,_ZN5astra9ArrayTypeC2ESt10shared_ptrINS_4TypeEERKNS_5TokenE
FNDA:5,_ZN5astra15ImportStatementC2ERKNS_5TokenERKSt6vectorINSt7__cxx1112basic_stringIcSt11char_traitsIcESaIcEEESaISA_EE
FNDA:10,_ZN5astra16BinaryExpressionC2ERKNS_5TokenESt10shared_ptrINS_10ExpressionEES6_
FNDA:0,_ZN5astra4TypeD0Ev
FNDA:20,_ZN5astra19VariableDeclarationC2ERKNS_5TokenESt10shared_ptrINS_20IdentifierExpressionEES4_INS_4TypeEES4_INS_10ExpressionEEb
FNDA:154,_ZN5astra17LiteralExpressionC2ERKNS_5TokenE
FNDA:199,_ZN5astra9StatementD2Ev
FNDA:5,_ZN5astra14ThrowStatementC2ERKNS_5TokenESt10shared_ptrINS_10ExpressionEE
FNDA:5,_ZN5astra19ExpressionStatement6acceptERNS_10ASTVisitorE
FNDA:5,_ZN5astra14BlockStatement6acceptERNS_10ASTVisitorE
FNDA:5,_ZN5astra17ContinueStatementC2ERKNS_5TokenE
FNDA:5,_ZN5astra19FunctionDeclarationC2ERKNS_5TokenESt10shared_ptrINS_20IdentifierExpressionEESt6vectorIS4_INS_19VariableDeclarationEESaIS9_EES4_INS_4TypeEES4_INS_14BlockStatementEES7_IS4_INS_9StatementEESaISH_EE
FNDA:0,_ZN5astra10ASTVisitorD0Ev
FNDA:5,_ZN5astra14BreakStatementC2ERKNS_5TokenE
FNDA:22,_ZN5astra11DeclarationD2Ev
FNDA:5,_ZN5astra15ArrayExpressionC2ERKNS_5TokenESt6vectorISt10shared_ptrINS_10ExpressionEESaIS7_EE
FNDA:5,_ZN5astra15TaskDeclaration6acceptERNS_10ASTVisitorE
FNF:72
FNH:66
DA:29,557
DA:38,271
DA:48,154
DA:61,87
DA:74,5
DA:75,5
DA:89,10
DA:90,10
DA:104,5
DA:107,5
DA:121,5
DA:124,5
DA:137,5
DA:138,5
DA:148,199
DA:156,22
DA:166,72
DA:179,30
DA:180,30
DA:196,20
DA:201,20
DA:218,5
DA:224,10
DA:225,10
DA:240,5
DA:244,10
DA:245,10
DA:259,5
DA:262,5
DA:277,5
DA:281,5
DA:294,10
DA:295,10
DA:307,5
DA:319,5
DA:332,5
DA:333,5
DA:347,12
DA:350,12
DA:365,5
DA:369,10
DA:370,10
DA:383,5
DA:384,5
DA:400,5
DA:405,10
DA:406,10
DA:420,5
DA:423,5
DA:433,77
DA:445,62
DA:448,30
DA:459,5
DA:460,5
DA:463,10
DA:476,5
DA:480,5
DA:483,5
DA:484,10
DA:497,5
DA:500,5
DA:503,5
DA:504,5
DA:505,15
DA:506,10
DA:507,10
DA:509,5
DA:510,5
DA:511,0
DA:523,10
DA:533,147
DA:566,5
DA:567,5
DA:568,5
DA:569,5
DA:570,5
DA:571,5
DA:572,5
DA:573,5
DA:574,5
DA:575,5
DA:576,5
DA:577,5
DA:578,5
DA:579,5
DA:580,5
DA:581,5
DA:582,5
DA:583,5
DA:584,5
DA:585,5
DA:586,5
DA:587,5
DA:588,5
DA:589,5
DA:590,5
DA:591,5
DA:592,5
DA:593,5
LF:99
LH:98
end_of_record
TN:
SF:/workspace/github/compiler/src/lexer/lexer.h
FN:34,_ZNK5astra5Lexer7currentEv
FN:44,_ZNK5astra5Lexer4peekEv
FN:54,_ZN5astra5Lexer7advanceEv
FN:67,_ZN5astra5Lexer5matchEc
FN:78,_ZN5astra5Lexer14skipWhitespaceEv
FN:87,_ZN5astra5Lexer12skipCommentsEv
FN:114,_ZN5astra5Lexer14scanIdentifierEv
FN:146,_ZN5astra5Lexer10scanNumberEv
FN:223,_ZN5astra5Lexer10scanStringEv
FN:268,_ZN5astra5Lexer9scanTokenEv
FN:416,_ZN5astra5LexerC2ERKNSt7__cxx1112basic_stringIcSt11char_traitsIcESaIcEEES8_RNS_12ErrorHandlerE
FN:422,_ZN5astra5Lexer8tokenizeEv
FNDA:3525,_ZN5astra5Lexer7advanceEv
FNDA:10,_ZN5astra5Lexer10scanStringEv
FNDA:10,_ZN5astra5Lexer10scanNumberEv
FNDA:605,_ZN5astra5Lexer9scanTokenEv
FNDA:210,_ZN5astra5Lexer14scanIdentifierEv
FNDA:215,_ZN5astra5Lexer5matchEc
FNDA:15,_ZN5astra5Lexer12skipCommentsEv
FNDA:40,_ZN5astra5Lexer8tokenizeEv
FNDA:60,_ZNK5astra5Lexer4peekEv
FNDA:12095,_ZNK5astra5Lexer7currentEv
FNDA:605,_ZN5astra5Lexer14skipWhitespaceEv
FNDA:40,_ZN5astra5LexerC2ERKNSt7__cxx1112basic_stringIcSt11char_traitsIcESaIcEEES8_RNS_12ErrorHandlerE
FNF:12
FNH:12
DA:34,12095
DA:35,12095
DA:36,125
DA:38,11970
DA:44,60
DA:45,60
DA:46,0
DA:48,60
DA:54,3525
DA:55,3525
DA:56,80
DA:57,80
DA:59,3445
DA:61,3525
DA:62,3525
DA:67,215
DA:68,215
DA:69,160
DA:71,55
DA:72,55
DA:78,605
DA:79,1820
DA:80,1215
DA:82,605
DA:87,15
DA:88,15
DA:90,270
DA:91,260
DA:93,5
DA:95,5
DA:96,5
DA:98,155
DA:99,150
DA:102,5
DA:103,0
DA:105,5
DA:106,5
DA:109,15
DA:114,210
DA:115,210
DA:116,210
DA:118,1495
DA:119,1285
DA:120,1285
DA:124,210
DA:125,210
DA:126,75
DA:129,75
DA:130,10
DA:131,10
DA:135,65
DA:139,135
DA:140,135
DA:141,210
DA:146,10
DA:147,10
DA:148,10
DA:149,10
DA:152,30
DA:153,20
DA:154,20
DA:158,10
DA:159,5
DA:160,5
DA:161,5
DA:164,15
DA:165,10
DA:166,10
DA:171,10
DA:172,0
DA:173,0
DA:174,0
DA:177,0
DA:178,0
DA:179,0
DA:183,0
DA:184,0
DA:185,0
DA:188,0
DA:189,0
DA:190,0
DA:195,10
DA:197,5
DA:198,5
DA:199,0
DA:200,0
DA:201,0
DA:202,0
DA:203,0
DA:204,0
DA:205,0
DA:208,5
DA:209,5
DA:210,0
DA:211,0
DA:212,0
DA:213,0
DA:214,0
DA:215,0
DA:216,0
DA:218,10
DA:223,10
DA:224,10
DA:225,10
DA:226,10
DA:228,10
DA:230,175
DA:231,165
DA:232,0
DA:233,0
DA:235,0
DA:236,0
DA:237,0
DA:238,0
DA:239,0
DA:240,0
DA:241,0
DA:242,0
DA:243,0
DA:244,0
DA:247,165
DA:250,165
DA:251,165
DA:254,10
DA:255,0
DA:256,0
DA:259,10
DA:260,10
DA:262,10
DA:263,10
DA:268,605
DA:269,605
DA:271,605
DA:272,40
DA:276,565
DA:277,15
DA:278,15
DA:281,550
DA:282,550
DA:285,550
DA:286,210
DA:287,340
DA:288,10
DA:289,330
DA:290,10
DA:294,320
DA:295,320
DA:296,25
DA:297,25
DA:298,15
DA:299,15
DA:300,5
DA:301,5
DA:302,30
DA:303,15
DA:304,10
DA:305,5
DA:308,10
DA:309,10
DA:310,0
DA:312,10
DA:314,15
DA:315,15
DA:316,10
DA:317,5
DA:318,0
DA:320,5
DA:322,10
DA:323,10
DA:324,0
DA:326,10
DA:328,5
DA:329,5
DA:330,0
DA:332,5
DA:334,5
DA:335,5
DA:336,0
DA:338,5
DA:340,25
DA:341,25
DA:342,5
DA:344,20
DA:346,10
DA:347,10
DA:348,5
DA:350,5
DA:352,15
DA:353,15
DA:354,5
DA:355,10
DA:356,5
DA:357,0
DA:359,5
DA:361,5
DA:363,20
DA:364,20
DA:365,5
DA:366,15
DA:367,5
DA:368,0
DA:370,5
DA:372,10
DA:374,10
DA:375,10
DA:376,5
DA:377,5
DA:378,0
DA:380,5
DA:382,10
DA:383,10
DA:384,5
DA:385,5
DA:386,0
DA:388,5
DA:390,5
DA:391,5
DA:392,0
DA:394,5
DA:396,5
DA:397,5
DA:399,25
DA:400,25
DA:401,5
DA:403,20
DA:405,0
DA:406,0
DA:407,0
DA:408,0
DA:416,40
DA:417,40
DA:422,40
DA:423,40
DA:426,590
DA:427,590
DA:429,590
DA:430,40
DA:432,1140
DA:434,40
DA:435,0
LF:240
LH:183
end_of_record
TN:
SF:/workspace/github/compiler/src/lexer/token.h
FN:128,_ZN5astra5TokenC2ENS_9TokenTypeERKNSt7__cxx1112basic_stringIcSt11char_traitsIcESaIcEEES9_ii
FN:131,_ZN5astra5TokenC2ENS_9TokenTypeESt7variantIJSt9monostateldNSt7__cxx1112basic_stringIcSt11char_traitsIcESaIcEEEbEERKS9_SC_ii
FNDA:165,_ZN5astra5TokenC2ENS_9TokenTypeESt7variantIJSt9monostateldNSt7__cxx1112basic_stringIcSt11char_traitsIcESaIcEEEbEERKS9_SC_ii
FNDA:900,_ZN5astra5TokenC2ENS_9TokenTypeERKNSt7__cxx1112basic_stringIcSt11char_traitsIcESaIcEEES9_ii
FNF:2
FNH:2
DA:128,900
DA:129,900
DA:131,165
DA:132,165
LF:4
LH:4
end_of_record
TN:
SF:/workspace/github/compiler/src/utils/error_handler.h
FN:35,_ZN5astra10DiagnosticC2ENS_18DiagnosticSeverityERKNSt7__cxx1112basic_stringIcSt11char_traitsIcESaIcEEES9_ii
FN:50,_ZN5astra12ErrorHandlerC2Ev
FN:55,_ZN5astra12ErrorHandler11reportErrorERKNSt7__cxx1112basic_stringIcSt11char_traitsIcESaIcEEES8_ii
FN:70,_ZN5astra12ErrorHandler13reportWarningERKNSt7__cxx1112basic_stringIcSt11char_traitsIcESaIcEEES8_ii
FN:85,_ZN5astra12ErrorHandler10reportInfoERKNSt7__cxx1112basic_stringIcSt11char_traitsIcESaIcEEES8_ii
FN:117,_ZNK5astra12ErrorHandler9hasErrorsEv
FN:124,_ZNK5astra12ErrorHandler13getErrorCountEv
FN:131,_ZNK5astra12ErrorHandler15getWarningCountEv
FN:138,_ZNK5astra12ErrorHandler14getDiagnosticsEv
FN:145,_ZNK5astra12ErrorHandler16formatDiagnosticB5cxx11ERKNS_10DiagnosticE
FNDA:60,_ZN5astra10DiagnosticC2ENS_18DiagnosticSeverityERKNSt7__cxx1112basic_stringIcSt11char_traitsIcESaIcEEES9_ii
FNDA:10,_ZN5astra12ErrorHandler10reportInfoERKNSt7__cxx1112basic_stringIcSt11char_traitsIcESaIcEEES8_ii
FNDA:15,_ZNK5astra12ErrorHandler9hasErrorsEv
FNDA:10,_ZN5astra12ErrorHandler13reportWarningERKNSt7__cxx1112basic_stringIcSt11char_traitsIcESaIcEEES8_ii
FNDA:60,_ZNK5astra12ErrorHandler16formatDiagnosticB5cxx11ERKNS_10DiagnosticE
FNDA:15,_ZN5astra12ErrorHandler11reportErrorERKNSt7__cxx1112basic_stringIcSt11char_traitsIcESaIcEEES8_ii
FNDA:70,_ZN5astra12ErrorHandlerC2Ev
FNDA:15,_ZNK5astra12ErrorHandler15getWarningCountEv
FNDA:5,_ZNK5astra12ErrorHandler14getDiagnosticsEv
FNDA:15,_ZNK5astra12ErrorHandler13getErrorCountEv
FNF:10
FNH:10
DA:35,60
DA:37,60
DA:50,70
DA:55,15
DA:59,15
DA:60,15
DA:61,15
DA:64,15
DA:65,30
DA:70,10
DA:74,10
DA:75,10
DA:76,10
DA:79,10
DA:80,20
DA:85,10
DA:89,10
DA:90,10
DA:93,10
DA:94,20
DA:117,15
DA:118,15
DA:124,15
DA:125,15
DA:131,15
DA:132,15
DA:138,5
DA:139,5
DA:145,60
DA:146,60
DA:149,60
DA:150,35
DA:151,35
DA:152,30
DA:153,30
DA:154,25
DA:157,35
DA:161,60
DA:162,15
DA:163,15
DA:164,15
DA:165,15
DA:166,15
DA:167,15
DA:168,20
DA:169,20
DA:170,20
DA:171,10
DA:172,10
DA:173,10
DA:177,60
DA:179,60
DA:180,0
LF:53
LH:52
end_of_record
TN:
SF:/workspace/github/compiler/tests/ast_test.cpp
FN:12,_ZN14MockASTVisitor5visitERN5astra7ProgramE
FN:13,_ZN14MockASTVisitor5visitERN5astra17LiteralExpressionE
FN:14,_ZN14MockASTVisitor5visitERN5astra20IdentifierExpressionE
FN:15,_ZN14MockASTVisitor5visitERN5astra15UnaryExpressionE
FN:16,_ZN14MockASTVisitor5visitERN5astra16BinaryExpressionE
FN:17,_ZN14MockASTVisitor5visitERN5astra14CallExpressionE
FN:18,_ZN14MockASTVisitor5visitERN5astra16MemberExpressionE
FN:19,_ZN14MockASTVisitor5visitERN5astra15ArrayExpressionE
FN:20,_ZN14MockASTVisitor5visitERN5astra19ExpressionStatementE
FN:21,_ZN14MockASTVisitor5visitERN5astra14BlockStatementE
FN:22,_ZN14MockASTVisitor5visitERN5astra19VariableDeclarationE
FN:23,_ZN14MockASTVisitor5visitERN5astra19FunctionDeclarationE
FN:24,_ZN14MockASTVisitor5visitERN5astra11IfStatementE
FN:25,_ZN14MockASTVisitor5visitERN5astra14WhileStatementE
FN:26,_ZN14MockASTVisitor5visitERN5astra12ForStatementE
FN:27,_ZN14MockASTVisitor5visitERN5astra15ReturnStatementE
FN:28,_ZN14MockASTVisitor5visitERN5astra14BreakStatementE
FN:29,_ZN14MockASTVisitor5visitERN5astra17ContinueStatementE
FN:30,_ZN14MockASTVisitor5visitERN5astra15ImportStatementE
FN:31,_ZN14MockASTVisitor5visitERN5astra17ModuleDeclarationE
FN:32,_ZN14MockASTVisitor5visitERN5astra12TryStatementE
FN:33,_ZN14MockASTVisitor5visitERN5astra14ThrowStatementE
FN:34,_ZN14MockASTVisitor5visitERN5astra15TaskDeclarationE
FN:35,_ZN14MockASTVisitor5visitERN5astra19AnnotationStatementE
FN:36,_ZN14MockASTVisitor5visitERN5astra10SimpleTypeE
FN:37,_ZN14MockASTVisitor5visitERN5astra9ArrayTypeE
FN:38,_ZN14MockASTVisitor5visitERN5astra9RangeTypeE
FN:39,_ZN14MockASTVisitor5visitERN5astra12FunctionTypeE
FN:43,_Z11createTokenN5astra9TokenTypeERKNSt7__cxx1112basic_stringIcSt11char_traitsIcESaIcEEE
FN:47,_ZN30ASTTest_LiteralExpression_Test8TestBodyEv
FN:47,_ZN30ASTTest_LiteralExpression_TestD0Ev
FN:47,_ZN30ASTTest_LiteralExpression_TestC2Ev
FN:47,_ZN30ASTTest_LiteralExpression_TestD2Ev
FN:58,_ZN33ASTTest_IdentifierExpression_TestC2Ev
FN:58,_ZN33ASTTest_IdentifierExpression_TestD0Ev
FN:58,_ZN33ASTTest_IdentifierExpression_Test8TestBodyEv
FN:58,_ZN33ASTTest_IdentifierExpression_TestD2Ev
FN:70,_ZN28ASTTest_UnaryExpression_TestD0Ev
FN:70,_ZN28ASTTest_UnaryExpression_TestD2Ev
FN:70,_ZN28ASTTest_UnaryExpression_TestC2Ev
FN:70,_ZN28ASTTest_UnaryExpression_Test8TestBodyEv
FN:84,_ZN29ASTTest_BinaryExpression_TestD2Ev
FN:84,_ZN29ASTTest_BinaryExpression_TestC2Ev
FN:84,_ZN29ASTTest_BinaryExpression_Test8TestBodyEv
FN:84,_ZN29ASTTest_BinaryExpression_TestD0Ev
FN:100,_ZN27ASTTest_CallExpression_TestD0Ev
FN:100,_ZN27ASTTest_CallExpression_TestC2Ev
FN:100,_ZN27ASTTest_CallExpression_Test8TestBodyEv
FN:100,_ZN27ASTTest_CallExpression_TestD2Ev
FN:120,_ZN29ASTTest_MemberExpression_TestD0Ev
FN:120,_ZN29ASTTest_MemberExpression_TestD2Ev
FN:120,_ZN29ASTTest_MemberExpression_TestC2Ev
FN:120,_ZN29ASTTest_MemberExpression_Test8TestBodyEv
FN:140,_ZN28ASTTest_ArrayExpression_TestD2Ev
FN:140,_ZN28ASTTest_ArrayExpression_Test8TestBodyEv
FN:140,_ZN28ASTTest_ArrayExpression_TestD0Ev
FN:140,_ZN28ASTTest_ArrayExpression_TestC2Ev
FN:157,_ZN32ASTTest_ExpressionStatement_TestD2Ev
FN:157,_ZN32ASTTest_ExpressionStatement_TestD0Ev
FN:157,_ZN32ASTTest_ExpressionStatement_Test8TestBodyEv
FN:157,_ZN32ASTTest_ExpressionStatement_TestC2Ev
FN:169,_ZN27ASTTest_BlockStatement_TestD0Ev
FN:169,_ZN27ASTTest_BlockStatement_TestD2Ev
FN:169,_ZN27ASTTest_BlockStatement_Test8TestBodyEv
FN:169,_ZN27ASTTest_BlockStatement_TestC2Ev
FN:189,_ZN32ASTTest_VariableDeclaration_TestD0Ev
FN:189,_ZN32ASTTest_VariableDeclaration_TestC2Ev
FN:189,_ZN32ASTTest_VariableDeclaration_TestD2Ev
FN:189,_ZN32ASTTest_VariableDeclaration_Test8TestBodyEv
FN:213,_ZN32ASTTest_FunctionDeclaration_TestD0Ev
FN:213,_ZN32ASTTest_FunctionDeclaration_TestD2Ev
FN:213,_ZN32ASTTest_FunctionDeclaration_Test8TestBodyEv
FN:213,_ZN32ASTTest_FunctionDeclaration_TestC2Ev
FN:275,_ZN23ASTTest_SimpleType_TestC2Ev
FN:275,_ZN23ASTTest_SimpleType_TestD2Ev
FN:275,_ZN23ASTTest_SimpleType_Test8TestBodyEv
FN:275,_ZN23ASTTest_SimpleType_TestD0Ev
FN:287,_ZN22ASTTest_ArrayType_Test8TestBodyEv
FN:287,_ZN22ASTTest_ArrayType_TestD2Ev
FN:287,_ZN22ASTTest_ArrayType_TestC2Ev
FN:287,_ZN22ASTTest_ArrayType_TestD0Ev
FN:303,_ZN25ASTTest_FunctionType_Test8TestBodyEv
FN:303,_ZN25ASTTest_FunctionType_TestD2Ev
FN:303,_ZN25ASTTest_FunctionType_TestD0Ev
FN:303,_ZN25ASTTest_FunctionType_TestC2Ev
FN:326,_ZN24ASTTest_IfStatement_Test8TestBodyEv
FN:326,_ZN24ASTTest_IfStatement_TestC2Ev
FN:326,_ZN24ASTTest_IfStatement_TestD0Ev
FN:326,_ZN24ASTTest_IfStatement_TestD2Ev
FN:348,_ZN27ASTTest_WhileStatement_Test8TestBodyEv
FN:348,_ZN27ASTTest_WhileStatement_TestD2Ev
FN:348,_ZN27ASTTest_WhileStatement_TestD0Ev
FN:348,_ZN27ASTTest_WhileStatement_TestC2Ev
FN:366,_ZN25ASTTest_ForStatement_TestD0Ev
FN:366,_ZN25ASTTest_ForStatement_TestC2Ev
FN:366,_ZN25ASTTest_ForStatement_TestD2Ev
FN:366,_ZN25ASTTest_ForStatement_Test8TestBodyEv
FN:388,_ZN28ASTTest_ReturnStatement_TestC2Ev
FN:388,_ZN28ASTTest_ReturnStatement_TestD0Ev
FN:388,_ZN28ASTTest_ReturnStatement_TestD2Ev
FN:388,_ZN28ASTTest_ReturnStatement_Test8TestBodyEv
FN:402,_ZN27ASTTest_BreakStatement_TestC2Ev
FN:402,_ZN27ASTTest_BreakStatement_Test8TestBodyEv
FN:402,_ZN27ASTTest_BreakStatement_TestD2Ev
FN:402,_ZN27ASTTest_BreakStatement_TestD0Ev
FN:414,_ZN30ASTTest_ContinueStatement_Test8TestBodyEv
FN:414,_ZN30ASTTest_ContinueStatement_TestD0Ev
FN:414,_ZN30ASTTest_ContinueStatement_TestC2Ev
FN:414,_ZN30ASTTest_ContinueStatement_TestD2Ev
FN:426,_ZN28ASTTest_ImportStatement_TestD2Ev
FN:426,_ZN28ASTTest_ImportStatement_TestC2Ev
FN:426,_ZN28ASTTest_ImportStatement_TestD0Ev
FN:426,_ZN28ASTTest_ImportStatement_Test8TestBodyEv
FN:442,_ZN30ASTTest_ModuleDeclaration_TestD2Ev
FN:442,_ZN30ASTTest_ModuleDeclaration_Test8TestBodyEv
FN:442,_ZN30ASTTest_ModuleDeclaration_TestC2Ev
FN:442,_ZN30ASTTest_ModuleDeclaration_TestD0Ev
FN:460,_ZN25ASTTest_TryStatement_TestD0Ev
FN:460,_ZN25ASTTest_TryStatement_TestC2Ev
FN:460,_ZN25ASTTest_TryStatement_Test8TestBodyEv
FN:460,_ZN25ASTTest_TryStatement_TestD2Ev
FN:505,_ZN27ASTTest_ThrowStatement_TestD0Ev
FN:505,_ZN27ASTTest_ThrowStatement_TestD2Ev
FN:505,_ZN27ASTTest_ThrowStatement_TestC2Ev
FN:505,_ZN27ASTTest_ThrowStatement_Test8TestBodyEv
FN:520,_ZN28ASTTest_TaskDeclaration_Test8TestBodyEv
FN:520,_ZN28ASTTest_TaskDeclaration_TestD2Ev
FN:520,_ZN28ASTTest_TaskDeclaration_TestD0Ev
FN:520,_ZN28ASTTest_TaskDeclaration_TestC2Ev
FN:547,_ZN32ASTTest_AnnotationStatement_TestC2Ev
FN:547,_ZN32ASTTest_AnnotationStatement_TestD2Ev
FN:547,_ZN32ASTTest_AnnotationStatement_Test8TestBodyEv
FN:547,_ZN32ASTTest_AnnotationStatement_TestD0Ev
FN:566,_ZN22ASTTest_RangeType_Test8TestBodyEv
FN:566,_ZN22ASTTest_RangeType_TestD0Ev
FN:566,_ZN22ASTTest_RangeType_TestC2Ev
FN:566,_ZN22ASTTest_RangeType_TestD2Ev
FN:588,_ZN20ASTTest_Program_TestC2Ev
FN:588,_ZN20ASTTest_Program_Test8TestBodyEv
FN:588,_ZN20ASTTest_Program_TestD2Ev
FN:588,_ZN20ASTTest_Program_TestD0Ev
FNDA:5,_ZN29ASTTest_BinaryExpression_TestD2Ev
FNDA:5,_ZN14MockASTVisitor5visitERN5astra19VariableDeclarationE
FNDA:5,_ZN29ASTTest_MemberExpression_TestD2Ev
FNDA:5,_ZN20ASTTest_Program_TestC2Ev
FNDA:5,_ZN14MockASTVisitor5visitERN5astra15ImportStatementE
FNDA:5,_ZN14MockASTVisitor5visitERN5astra10SimpleTypeE
FNDA:5,_ZN24ASTTest_IfStatement_TestC2Ev
FNDA:5,_ZN29ASTTest_BinaryExpression_TestC2Ev
FNDA:5,_ZN28ASTTest_TaskDeclaration_TestD2Ev
FNDA:5,_ZN27ASTTest_WhileStatement_Test8TestBodyEv
FNDA:5,_ZN22ASTTest_ArrayType_TestD2Ev
FNDA:5,_ZN27ASTTest_BlockStatement_TestD0Ev
FNDA:5,_ZN27ASTTest_ThrowStatement_TestD2Ev
FNDA:5,_ZN29ASTTest_MemberExpression_TestD0Ev
FNDA:5,_ZN27ASTTest_ThrowStatement_TestC2Ev
FNDA:5,_ZN30ASTTest_ModuleDeclaration_Test8TestBodyEv
FNDA:5,_ZN32ASTTest_VariableDeclaration_TestD0Ev
FNDA:5,_ZN14MockASTVisitor5visitERN5astra17ModuleDeclarationE
FNDA:5,_ZN14MockASTVisitor5visitERN5astra9ArrayTypeE
FNDA:5,_ZN25ASTTest_TryStatement_TestD0Ev
FNDA:5,_ZN14MockASTVisitor5visitERN5astra7ProgramE
FNDA:5,_ZN24ASTTest_IfStatement_Test8TestBodyEv
FNDA:5,_ZN28ASTTest_TaskDeclaration_Test8TestBodyEv
FNDA:5,_ZN32ASTTest_ExpressionStatement_TestD2Ev
FNDA:5,_ZN22ASTTest_ArrayType_Test8TestBodyEv
FNDA:5,_ZN14MockASTVisitor5visitERN5astra19AnnotationStatementE
FNDA:5,_ZN32ASTTest_AnnotationStatement_TestC2Ev
FNDA:5,_ZN33ASTTest_IdentifierExpression_TestC2Ev
FNDA:5,_ZN30ASTTest_ModuleDeclaration_TestD2Ev
FNDA:5,_ZN22ASTTest_RangeType_Test8TestBodyEv
FNDA:5,_ZN25ASTTest_FunctionType_Test8TestBodyEv
FNDA:5,_ZN28ASTTest_UnaryExpression_TestD0Ev
FNDA:5,_ZN14MockASTVisitor5visitERN5astra20IdentifierExpressionE
FNDA:5,_ZN25ASTTest_FunctionType_TestD2Ev
FNDA:5,_ZN27ASTTest_ThrowStatement_TestD0Ev
FNDA:5,_ZN14MockASTVisitor5visitERN5astra17ContinueStatementE
FNDA:5,_ZN14MockASTVisitor5visitERN5astra12ForStatementE
FNDA:5,_ZN28ASTTest_ArrayExpression_TestD2Ev
FNDA:5,_ZN32ASTTest_FunctionDeclaration_TestD0Ev
FNDA:5,_ZN32ASTTest_FunctionDeclaration_Test8TestBodyEv
FNDA:5,_ZN14MockASTVisitor5visitERN5astra12FunctionTypeE
FNDA:5,_ZN30ASTTest_ContinueStatement_Test8TestBodyEv
FNDA:5,_ZN25ASTTest_FunctionType_TestC2Ev
FNDA:5,_ZN25ASTTest_ForStatement_TestD2Ev
FNDA:5,_ZN32ASTTest_AnnotationStatement_TestD2Ev
FNDA:5,_ZN27ASTTest_BreakStatement_TestC2Ev
FNDA:5,_ZN32ASTTest_ExpressionStatement_TestD0Ev
FNDA:5,_ZN28ASTTest_ReturnStatement_TestD2Ev
FNDA:5,_ZN30ASTTest_LiteralExpression_TestD0Ev
FNDA:5,_ZN30ASTTest_LiteralExpression_Test8TestBodyEv
FNDA:5,_ZN27ASTTest_WhileStatement_TestD2Ev
FNDA:5,_ZN32ASTTest_FunctionDeclaration_TestD2Ev
FNDA:5,_ZN28ASTTest_ReturnStatement_TestD0Ev
FNDA:5,_ZN20ASTTest_Program_Test8TestBodyEv
FNDA:5,_ZN22ASTTest_RangeType_TestD0Ev
FNDA:5,_ZN28ASTTest_UnaryExpression_TestD2Ev
FNDA:5,_ZN25ASTTest_TryStatement_TestC2Ev
FNDA:5,_ZN28ASTTest_ReturnStatement_TestC2Ev
FNDA:5,_ZN14MockASTVisitor5visitERN5astra14ThrowStatementE
FNDA:5,_ZN28ASTTest_ImportStatement_TestC2Ev
FNDA:5,_ZN25ASTTest_TryStatement_TestD2Ev
FNDA:5,_ZN25ASTTest_FunctionType_TestD0Ev
FNDA:5,_ZN25ASTTest_TryStatement_Test8TestBodyEv
FNDA:5,_ZN32ASTTest_VariableDeclaration_TestC2Ev
FNDA:5,_ZN29ASTTest_MemberExpression_TestC2Ev
FNDA:5,_ZN25ASTTest_ForStatement_TestC2Ev
FNDA:5,_ZN25ASTTest_ForStatement_TestD0Ev
FNDA:5,_ZN23ASTTest_SimpleType_TestC2Ev
FNDA:5,_ZN33ASTTest_IdentifierExpression_TestD0Ev
FNDA:5,_ZN28ASTTest_ImportStatement_TestD2Ev
FNDA:5,_ZN30ASTTest_ModuleDeclaration_TestC2Ev
FNDA:5,_ZN28ASTTest_TaskDeclaration_TestD0Ev
FNDA:5,_ZN14MockASTVisitor5visitERN5astra16BinaryExpressionE
FNDA:5,_ZN14MockASTVisitor5visitERN5astra15TaskDeclarationE
FNDA:5,_ZN30ASTTest_ContinueStatement_TestC2Ev
FNDA:5,_ZN14MockASTVisitor5visitERN5astra14CallExpressionE
FNDA:5,_ZN14MockASTVisitor5visitERN5astra17LiteralExpressionE
FNDA:5,_ZN28ASTTest_TaskDeclaration_TestC2Ev
FNDA:5,_ZN32ASTTest_FunctionDeclaration_TestC2Ev
FNDA:5,_ZN14MockASTVisitor5visitERN5astra15ArrayExpressionE
FNDA:5,_ZN24ASTTest_IfStatement_TestD0Ev
FNDA:5,_ZN14MockASTVisitor5visitERN5astra14BreakStatementE
FNDA:5,_ZN32ASTTest_AnnotationStatement_TestD0Ev
FNDA:5,_ZN28ASTTest_ImportStatement_TestD0Ev
FNDA:5,_ZN32ASTTest_AnnotationStatement_Test8TestBodyEv
FNDA:5,_ZN20ASTTest_Program_TestD2Ev
FNDA:5,_ZN14MockASTVisitor5visitERN5astra19FunctionDeclarationE
FNDA:440,_Z11createTokenN5astra9TokenTypeERKNSt7__cxx1112basic_stringIcSt11char_traitsIcESaIcEEE
FNDA:5,_ZN28ASTTest_ArrayExpression_TestD0Ev
FNDA:5,_ZN27ASTTest_CallExpression_TestC2Ev
FNDA:5,_ZN32ASTTest_VariableDeclaration_TestD2Ev
FNDA:5,_ZN33ASTTest_IdentifierExpression_Test8TestBodyEv
FNDA:5,_ZN14MockASTVisitor5visitERN5astra16MemberExpressionE
FNDA:5,_ZN28ASTTest_UnaryExpression_TestC2Ev
FNDA:5,_ZN30ASTTest_ContinueStatement_TestD0Ev
FNDA:5,_ZN27ASTTest_CallExpression_TestD0Ev
FNDA:5,_ZN28ASTTest_ReturnStatement_Test8TestBodyEv
FNDA:5,_ZN28ASTTest_ArrayExpression_Test8TestBodyEv
FNDA:5,_ZN28ASTTest_UnaryExpression_Test8TestBodyEv
FNDA:5,_ZN32ASTTest_VariableDeclaration_Test8TestBodyEv
FNDA:5,_ZN27ASTTest_CallExpression_Test8TestBodyEv
FNDA:5,_ZN27ASTTest_CallExpression_TestD2Ev
FNDA:5,_ZN27ASTTest_BreakStatement_TestD0Ev
FNDA:5,_ZN14MockASTVisitor5visitERN5astra14WhileStatementE
FNDA:5,_ZN27ASTTest_WhileStatement_TestC2Ev
FNDA:5,_ZN27ASTTest_BreakStatement_TestD2Ev
FNDA:5,_ZN22ASTTest_RangeType_TestD2Ev
FNDA:5,_ZN29ASTTest_BinaryExpression_TestD0Ev
FNDA:5,_ZN23ASTTest_SimpleType_TestD0Ev
FNDA:5,_ZN14MockASTVisitor5visitERN5astra11IfStatementE
FNDA:5,_ZN28ASTTest_ArrayExpression_TestC2Ev
FNDA:5,_ZN32ASTTest_ExpressionStatement_TestC2Ev
FNDA:5,_ZN24ASTTest_IfStatement_TestD2Ev
FNDA:5,_ZN14MockASTVisitor5visitERN5astra9RangeTypeE
FNDA:5,_ZN14MockASTVisitor5visitERN5astra19ExpressionStatementE
FNDA:5,_ZN25ASTTest_ForStatement_Test8TestBodyEv
FNDA:5,_ZN28ASTTest_ImportStatement_Test8TestBodyEv
FNDA:5,_ZN23ASTTest_SimpleType_Test8TestBodyEv
FNDA:5,_ZN30ASTTest_ModuleDeclaration_TestD0Ev
FNDA:5,_ZN20ASTTest_Program_TestD0Ev
FNDA:5,_ZN14MockASTVisitor5visitERN5astra14BlockStatementE
FNDA:5,_ZN14MockASTVisitor5visitERN5astra15ReturnStatementE
FNDA:5,_ZN29ASTTest_MemberExpression_Test8TestBodyEv
FNDA:5,_ZN27ASTTest_WhileStatement_TestD0Ev
FNDA:5,_ZN14MockASTVisitor5visitERN5astra12TryStatementE
FNDA:5,_ZN30ASTTest_ContinueStatement_TestD2Ev
FNDA:5,_ZN27ASTTest_BlockStatement_TestC2Ev
FNDA:5,_ZN29ASTTest_BinaryExpression_Test8TestBodyEv
FNDA:5,_ZN22ASTTest_RangeType_TestC2Ev
FNDA:5,_ZN27ASTTest_BlockStatement_Test8TestBodyEv
FNDA:5,_ZN22ASTTest_ArrayType_TestD0Ev
FNDA:5,_ZN27ASTTest_BreakStatement_Test8TestBodyEv
FNDA:5,_ZN22ASTTest_ArrayType_TestC2Ev
FNDA:5,_ZN23ASTTest_SimpleType_TestD2Ev
FNDA:5,_ZN27ASTTest_BlockStatement_TestD2Ev
FNDA:5,_ZN27ASTTest_ThrowStatement_Test8TestBodyEv
FNDA:5,_ZN30ASTTest_LiteralExpression_TestD2Ev
FNDA:5,_ZN32ASTTest_ExpressionStatement_Test8TestBodyEv
FNDA:5,_ZN14MockASTVisitor5visitERN5astra15UnaryExpressionE
FNDA:5,_ZN33ASTTest_IdentifierExpression_TestD2Ev
FNDA:5,_ZN30ASTTest_LiteralExpression_TestC2Ev
FNF:141
FNH:141
DA:12,5
DA:13,5
DA:14,5
DA:15,5
DA:16,5
DA:17,5
DA:18,5
DA:19,5
DA:20,5
DA:21,5
DA:22,5
DA:23,5
DA:24,5
DA:25,5
DA:26,5
DA:27,5
DA:28,5
DA:29,5
DA:30,5
DA:31,5
DA:32,5
DA:33,5
DA:34,5
DA:35,5
DA:36,5
DA:37,5
DA:38,5
DA:39,5
DA:43,440
DA:44,440
DA:47,20
DA:48,5
DA:49,5
DA:51,5
DA:53,10
DA:54,5
DA:55,5
DA:56,10
DA:58,20
DA:59,5
DA:60,5
DA:62,5
DA:63,5
DA:65,10
DA:66,5
DA:67,5
DA:68,10
DA:70,20
DA:71,5
DA:72,5
DA:74,5
DA:76,5
DA:77,5
DA:79,10
DA:80,5
DA:81,5
DA:82,10
DA:84,20
DA:85,5
DA:86,5
DA:87,5
DA:89,5
DA:91,5
DA:92,5
DA:93,5
DA:95,10
DA:96,5
DA:97,5
DA:98,10
DA:100,20
DA:101,5
DA:102,5
DA:104,5
DA:105,5
DA:107,5
DA:109,5
DA:111,5
DA:112,5
DA:113,5
DA:115,10
DA:116,5
DA:117,5
DA:118,10
DA:120,20
DA:121,5
DA:122,5
DA:124,5
DA:126,5
DA:127,5
DA:129,5
DA:131,5
DA:132,5
DA:133,5
DA:135,10
DA:136,5
DA:137,5
DA:138,10
DA:140,20
DA:141,5
DA:143,5
DA:144,5
DA:145,5
DA:147,5
DA:149,5
DA:150,5
DA:152,10
DA:153,5
DA:154,5
DA:155,10
DA:157,20
DA:158,5
DA:160,5
DA:162,5
DA:164,10
DA:165,5
DA:166,5
DA:167,10
DA:169,20
DA:170,5
DA:172,5
DA:173,5
DA:174,5
DA:176,5
DA:177,5
DA:179,5
DA:181,5
DA:182,5
DA:184,10
DA:185,5
DA:186,5
DA:187,10
DA:189,20
DA:190,5
DA:191,5
DA:192,5
DA:194,5
DA:195,5
DA:197,5
DA:198,5
DA:200,5
DA:202,5
DA:203,5
DA:204,5
DA:205,5
DA:206,5
DA:208,10
DA:209,5
DA:210,5
DA:211,10
DA:213,20
DA:214,5
DA:215,5
DA:216,5
DA:218,5
DA:220,5
DA:221,5
DA:222,5
DA:223,5
DA:224,5
DA:225,10
DA:228,15
DA:230,5
DA:231,5
DA:232,5
DA:233,5
DA:234,5
DA:235,10
DA:238,15
DA:240,5
DA:241,5
DA:243,5
DA:244,5
DA:246,5
DA:247,10
DA:248,10
DA:249,15
DA:251,5
DA:252,10
DA:253,5
DA:255,5
DA:256,10
DA:257,25
DA:259,5
DA:261,5
DA:263,5
DA:264,5
DA:265,5
DA:266,5
DA:267,5
DA:268,5
DA:270,10
DA:271,5
DA:272,5
DA:273,15
DA:275,20
DA:276,5
DA:277,5
DA:279,5
DA:280,5
DA:282,10
DA:283,5
DA:284,5
DA:285,10
DA:287,20
DA:288,5
DA:289,5
DA:291,5
DA:293,5
DA:295,5
DA:296,5
DA:298,10
DA:299,5
DA:300,5
DA:301,10
DA:303,20
DA:304,5
DA:306,5
DA:307,5
DA:308,5
DA:310,5
DA:311,5
DA:313,5
DA:315,5
DA:317,5
DA:318,5
DA:319,5
DA:321,10
DA:322,5
DA:323,5
DA:324,10
DA:326,20
DA:327,5
DA:328,5
DA:330,5
DA:331,5
DA:333,5
DA:334,5
DA:336,5
DA:338,5
DA:339,5
DA:340,5
DA:341,5
DA:343,10
DA:344,5
DA:345,5
DA:346,10
DA:348,20
DA:349,5
DA:350,5
DA:352,5
DA:353,5
DA:355,5
DA:357,5
DA:358,5
DA:359,5
DA:361,10
DA:362,5
DA:363,5
DA:364,10
DA:366,20
DA:367,5
DA:368,5
DA:369,5
DA:371,5
DA:373,5
DA:374,5
DA:376,5
DA:378,5
DA:379,5
DA:380,5
DA:381,5
DA:383,10
DA:384,5
DA:385,5
DA:386,10
DA:388,20
DA:389,5
DA:390,5
DA:392,5
DA:394,5
DA:395,5
DA:397,10
DA:398,5
DA:399,5
DA:400,10
DA:402,20
DA:403,5
DA:405,5
DA:407,5
DA:409,10
DA:410,5
DA:411,5
DA:412,10
DA:414,20
DA:415,5
DA:417,5
DA:419,5
DA:421,10
DA:422,5
DA:423,5
DA:424,10
DA:426,20
DA:427,5
DA:428,25
DA:430,5
DA:432,5
DA:433,5
DA:434,5
DA:435,5
DA:437,10
DA:438,5
DA:439,5
DA:440,20
DA:442,20
DA:443,5
DA:444,5
DA:445,5
DA:447,5
DA:449,5
DA:451,5
DA:452,5
DA:453,5
DA:455,10
DA:456,5
DA:457,5
DA:458,10
DA:460,20
DA:461,5
DA:463,5
DA:464,5
DA:465,10
DA:466,30
DA:468,5
DA:470,5
DA:471,5
DA:472,5
DA:473,5
DA:475,5
DA:476,10
DA:479,15
DA:481,5
DA:482,5
DA:483,10
DA:484,30
DA:486,5
DA:488,5
DA:489,5
DA:490,10
DA:491,30
DA:493,5
DA:495,5
DA:496,5
DA:497,5
DA:498,5
DA:500,10
DA:501,5
DA:502,5
DA:503,40
DA:505,20
DA:506,5
DA:507,5
DA:508,5
DA:510,5
DA:512,5
DA:513,5
DA:515,10
DA:516,5
DA:517,5
DA:518,10
DA:520,20
DA:521,5
DA:522,5
DA:523,5
DA:525,5
DA:527,5
DA:528,5
DA:529,10
DA:530,30
DA:532,5
DA:534,5
DA:536,5
DA:537,5
DA:538,5
DA:539,5
DA:540,5
DA:542,10
DA:543,5
DA:544,5
DA:545,20
DA:547,20
DA:548,5
DA:549,5
DA:550,5
DA:552,5
DA:553,5
DA:555,5
DA:557,5
DA:558,5
DA:559,5
DA:561,10
DA:562,5
DA:563,5
DA:564,10
DA:566,20
DA:567,5
DA:568,5
DA:570,5
DA:571,5
DA:573,5
DA:575,5
DA:577,5
DA:578,5
DA:579,5
DA:580,5
DA:581,5
DA:583,10
DA:584,5
DA:585,5
DA:586,10
DA:588,20
DA:589,5
DA:591,5
DA:592,5
DA:594,5
DA:595,5
DA:597,5
DA:599,5
DA:601,10
DA:602,5
DA:603,5
DA:604,10
LF:431
LH:431
end_of_record
TN:
SF:/workspace/github/compiler/tests/codegen_test.cpp
FN:5,_ZN32CodeGenTest_BasicGeneration_TestD0Ev
FN:5,_ZN32CodeGenTest_BasicGeneration_Test8TestBodyEv
FN:5,_ZN32CodeGenTest_BasicGeneration_TestC2Ev
FN:5,_ZN32CodeGenTest_BasicGeneration_TestD2Ev
FNDA:5,_ZN32CodeGenTest_BasicGeneration_TestD2Ev
FNDA:5,_ZN32CodeGenTest_BasicGeneration_TestC2Ev
FNDA:5,_ZN32CodeGenTest_BasicGeneration_Test8TestBodyEv
FNDA:5,_ZN32CodeGenTest_BasicGeneration_TestD0Ev
FNF:4
FNH:4
DA:5,20
DA:7,5
LF:2
LH:2
end_of_record
TN:
SF:/workspace/github/compiler/tests/destructors_test.cpp
FN:11,_ZN41DestructorsTest_BaseClassDestructors_TestD2Ev
FN:11,_ZN41DestructorsTest_BaseClassDestructors_TestD0Ev
FN:11,_ZN41DestructorsTest_BaseClassDestructors_TestC2Ev
FN:11,_ZN41DestructorsTest_BaseClassDestructors_Test8TestBodyEv
FN:65,_ZZN41DestructorsTest_BaseClassDestructors_Test8TestBodyEvEN11TestVisitor5visitERN5astra7ProgramE
FN:66,_ZZN41DestructorsTest_BaseClassDestructors_Test8TestBodyEvEN11TestVisitor5visitERN5astra17LiteralExpressionE
FN:67,_ZZN41DestructorsTest_BaseClassDestructors_Test8TestBodyEvEN11TestVisitor5visitERN5astra20IdentifierExpressionE
FN:68,_ZZN41DestructorsTest_BaseClassDestructors_Test8TestBodyEvEN11TestVisitor5visitERN5astra15UnaryExpressionE
FN:69,_ZZN41DestructorsTest_BaseClassDestructors_Test8TestBodyEvEN11TestVisitor5visitERN5astra16BinaryExpressionE
FN:70,_ZZN41DestructorsTest_BaseClassDestructors_Test8TestBodyEvEN11TestVisitor5visitERN5astra14CallExpressionE
FN:71,_ZZN41DestructorsTest_BaseClassDestructors_Test8TestBodyEvEN11TestVisitor5visitERN5astra16MemberExpressionE
FN:72,_ZZN41DestructorsTest_BaseClassDestructors_Test8TestBodyEvEN11TestVisitor5visitERN5astra15ArrayExpressionE
FN:73,_ZZN41DestructorsTest_BaseClassDestructors_Test8TestBodyEvEN11TestVisitor5visitERN5astra19ExpressionStatementE
FN:74,_ZZN41DestructorsTest_BaseClassDestructors_Test8TestBodyEvEN11TestVisitor5visitERN5astra14BlockStatementE
FN:75,_ZZN41DestructorsTest_BaseClassDestructors_Test8TestBodyEvEN11TestVisitor5visitERN5astra19VariableDeclarationE
FN:76,_ZZN41DestructorsTest_BaseClassDestructors_Test8TestBodyEvEN11TestVisitor5visitERN5astra19FunctionDeclarationE
FN:77,_ZZN41DestructorsTest_BaseClassDestructors_Test8TestBodyEvEN11TestVisitor5visitERN5astra11IfStatementE
FN:78,_ZZN41DestructorsTest_BaseClassDestructors_Test8TestBodyEvEN11TestVisitor5visitERN5astra14WhileStatementE
FN:79,_ZZN41DestructorsTest_BaseClassDestructors_Test8TestBodyEvEN11TestVisitor5visitERN5astra12ForStatementE
FN:80,_ZZN41DestructorsTest_BaseClassDestructors_Test8TestBodyEvEN11TestVisitor5visitERN5astra15ReturnStatementE
FN:81,_ZZN41DestructorsTest_BaseClassDestructors_Test8TestBodyEvEN11TestVisitor5visitERN5astra14BreakStatementE
FN:82,_ZZN41DestructorsTest_BaseClassDestructors_Test8TestBodyEvEN11TestVisitor5visitERN5astra17ContinueStatementE
FN:83,_ZZN41DestructorsTest_BaseClassDestructors_Test8TestBodyEvEN11TestVisitor5visitERN5astra15ImportStatementE
FN:84,_ZZN41DestructorsTest_BaseClassDestructors_Test8TestBodyEvEN11TestVisitor5visitERN5astra17ModuleDeclarationE
FN:85,_ZZN41DestructorsTest_BaseClassDestructors_Test8TestBodyEvEN11TestVisitor5visitERN5astra12TryStatementE
FN:86,_ZZN41DestructorsTest_BaseClassDestructors_Test8TestBodyEvEN11TestVisitor5visitERN5astra14ThrowStatementE
FN:87,_ZZN41DestructorsTest_BaseClassDestructors_Test8TestBodyEvEN11TestVisitor5visitERN5astra15TaskDeclarationE
FN:88,_ZZN41DestructorsTest_BaseClassDestructors_Test8TestBodyEvEN11TestVisitor5visitERN5astra19AnnotationStatementE
FN:89,_ZZN41DestructorsTest_BaseClassDestructors_Test8TestBodyEvEN11TestVisitor5visitERN5astra10SimpleTypeE
FN:90,_ZZN41DestructorsTest_BaseClassDestructors_Test8TestBodyEvEN11TestVisitor5visitERN5astra9ArrayTypeE
FN:91,_ZZN41DestructorsTest_BaseClassDestructors_Test8TestBodyEvEN11TestVisitor5visitERN5astra9RangeTypeE
FN:92,_ZZN41DestructorsTest_BaseClassDestructors_Test8TestBodyEvEN11TestVisitor5visitERN5astra12FunctionTypeE
FNDA:0,_ZZN41DestructorsTest_BaseClassDestructors_Test8TestBodyEvEN11TestVisitor5visitERN5astra9ArrayTypeE
FNDA:0,_ZZN41DestructorsTest_BaseClassDestructors_Test8TestBodyEvEN11TestVisitor5visitERN5astra16MemberExpressionE
FNDA:0,_ZZN41DestructorsTest_BaseClassDestructors_Test8TestBodyEvEN11TestVisitor5visitERN5astra10SimpleTypeE
FNDA:0,_ZZN41DestructorsTest_BaseClassDestructors_Test8TestBodyEvEN11TestVisitor5visitERN5astra12FunctionTypeE
FNDA:0,_ZZN41DestructorsTest_BaseClassDestructors_Test8TestBodyEvEN11TestVisitor5visitERN5astra19AnnotationStatementE
FNDA:0,_ZZN41DestructorsTest_BaseClassDestructors_Test8TestBodyEvEN11TestVisitor5visitERN5astra14BreakStatementE
FNDA:0,_ZZN41DestructorsTest_BaseClassDestructors_Test8TestBodyEvEN11TestVisitor5visitERN5astra17LiteralExpressionE
FNDA:0,_ZZN41DestructorsTest_BaseClassDestructors_Test8TestBodyEvEN11TestVisitor5visitERN5astra14ThrowStatementE
FNDA:0,_ZZN41DestructorsTest_BaseClassDestructors_Test8TestBodyEvEN11TestVisitor5visitERN5astra7ProgramE
FNDA:0,_ZZN41DestructorsTest_BaseClassDestructors_Test8TestBodyEvEN11TestVisitor5visitERN5astra17ContinueStatementE
FNDA:0,_ZZN41DestructorsTest_BaseClassDestructors_Test8TestBodyEvEN11TestVisitor5visitERN5astra11IfStatementE
FNDA:0,_ZZN41DestructorsTest_BaseClassDestructors_Test8TestBodyEvEN11TestVisitor5visitERN5astra15ReturnStatementE
FNDA:0,_ZZN41DestructorsTest_BaseClassDestructors_Test8TestBodyEvEN11TestVisitor5visitERN5astra14CallExpressionE
FNDA:0,_ZZN41DestructorsTest_BaseClassDestructors_Test8TestBodyEvEN11TestVisitor5visitERN5astra16BinaryExpressionE
FNDA:0,_ZZN41DestructorsTest_BaseClassDestructors_Test8TestBodyEvEN11TestVisitor5visitERN5astra17ModuleDeclarationE
FNDA:0,_ZZN41DestructorsTest_BaseClassDestructors_Test8TestBodyEvEN11TestVisitor5visitERN5astra20IdentifierExpressionE
FNDA:0,_ZZN41DestructorsTest_BaseClassDestructors_Test8TestBodyEvEN11TestVisitor5visitERN5astra19ExpressionStatementE
FNDA:0,_ZZN41DestructorsTest_BaseClassDestructors_Test8TestBodyEvEN11TestVisitor5visitERN5astra15ImportStatementE
FNDA:0,_ZZN41DestructorsTest_BaseClassDestructors_Test8TestBodyEvEN11TestVisitor5visitERN5astra15TaskDeclarationE
FNDA:0,_ZZN41DestructorsTest_BaseClassDestructors_Test8TestBodyEvEN11TestVisitor5visitERN5astra19VariableDeclarationE
FNDA:0,_ZZN41DestructorsTest_BaseClassDestructors_Test8TestBodyEvEN11TestVisitor5visitERN5astra9RangeTypeE
FNDA:0,_ZZN41DestructorsTest_BaseClassDestructors_Test8TestBodyEvEN11TestVisitor5visitERN5astra14BlockStatementE
FNDA:0,_ZZN41DestructorsTest_BaseClassDestructors_Test8TestBodyEvEN11TestVisitor5visitERN5astra19FunctionDeclarationE
FNDA:0,_ZZN41DestructorsTest_BaseClassDestructors_Test8TestBodyEvEN11TestVisitor5visitERN5astra12TryStatementE
FNDA:0,_ZZN41DestructorsTest_BaseClassDestructors_Test8TestBodyEvEN11TestVisitor5visitERN5astra12ForStatementE
FNDA:0,_ZZN41DestructorsTest_BaseClassDestructors_Test8TestBodyEvEN11TestVisitor5visitERN5astra14WhileStatementE
FNDA:0,_ZZN41DestructorsTest_BaseClassDestructors_Test8TestBodyEvEN11TestVisitor5visitERN5astra15UnaryExpressionE
FNDA:0,_ZZN41DestructorsTest_BaseClassDestructors_Test8TestBodyEvEN11TestVisitor5visitERN5astra15ArrayExpressionE
FNDA:2,_ZN41DestructorsTest_BaseClassDestructors_TestD0Ev
FNDA:2,_ZN41DestructorsTest_BaseClassDestructors_TestD2Ev
FNDA:2,_ZN41DestructorsTest_BaseClassDestructors_TestC2Ev
FNDA:2,_ZN41DestructorsTest_BaseClassDestructors_Test8TestBodyEv
FNF:32
FNH:4
DA:11,8
DA:13,2
DA:17,4
DA:18,4
DA:19,2
DA:25,4
DA:26,4
DA:27,2
DA:33,8
DA:34,4
DA:36,6
DA:37,2
DA:43,4
DA:44,6
DA:45,4
DA:48,4
DA:49,6
DA:50,2
DA:56,4
DA:58,6
DA:59,2
DA:65,0
DA:66,0
DA:67,0
DA:68,0
DA:69,0
DA:70,0
DA:71,0
DA:72,0
DA:73,0
DA:74,0
DA:75,0
DA:76,0
DA:77,0
DA:78,0
DA:79,0
DA:80,0
DA:81,0
DA:82,0
DA:83,0
DA:84,0
DA:85,0
DA:86,0
DA:87,0
DA:88,0
DA:89,0
DA:90,0
DA:91,0
DA:92,0
DA:96,2
DA:97,2
DA:101,2
DA:102,2
LF:53
LH:25
end_of_record
TN:
SF:/workspace/github/compiler/tests/error_handler_test.cpp
FN:13,_ZN16ErrorHandlerTest5SetUpEv
FN:18,_ZN16ErrorHandlerTest8TearDownEv
FN:24,_ZN33ErrorHandlerTest_ReportError_TestC2Ev
FN:24,_ZN33ErrorHandlerTest_ReportError_TestD0Ev
FN:24,_ZN33ErrorHandlerTest_ReportError_TestD2Ev
FN:24,_ZN33ErrorHandlerTest_ReportError_Test8TestBodyEv
FN:36,_ZN35ErrorHandlerTest_ReportWarning_Test8TestBodyEv
FN:36,_ZN35ErrorHandlerTest_ReportWarning_TestC2Ev
FN:36,_ZN35ErrorHandlerTest_ReportWarning_TestD2Ev
FN:36,_ZN35ErrorHandlerTest_ReportWarning_TestD0Ev
FN:48,_ZN32ErrorHandlerTest_ReportInfo_TestC2Ev
FN:48,_ZN32ErrorHandlerTest_ReportInfo_Test8TestBodyEv
FN:48,_ZN32ErrorHandlerTest_ReportInfo_TestD0Ev
FN:48,_ZN32ErrorHandlerTest_ReportInfo_TestD2Ev
FN:60,_ZN38ErrorHandlerTest_FormatDiagnostic_TestD0Ev
FN:60,_ZN38ErrorHandlerTest_FormatDiagnostic_TestC2Ev
FN:60,_ZN38ErrorHandlerTest_FormatDiagnostic_Test8TestBodyEv
FN:60,_ZN38ErrorHandlerTest_FormatDiagnostic_TestD2Ev
FN:80,_ZN36ErrorHandlerTest_GetDiagnostics_Test8TestBodyEv
FN:80,_ZN36ErrorHandlerTest_GetDiagnostics_TestC2Ev
FN:80,_ZN36ErrorHandlerTest_GetDiagnostics_TestD2Ev
FN:80,_ZN36ErrorHandlerTest_GetDiagnostics_TestD0Ev
FN:102,_ZN43ErrorHandlerTest_ReportFatalDiagnostic_TestD2Ev
FN:102,_ZN43ErrorHandlerTest_ReportFatalDiagnostic_Test8TestBodyEv
FN:102,_ZN43ErrorHandlerTest_ReportFatalDiagnostic_TestD0Ev
FN:102,_ZN43ErrorHandlerTest_ReportFatalDiagnostic_TestC2Ev
FNDA:5,_ZN43ErrorHandlerTest_ReportFatalDiagnostic_TestD2Ev
FNDA:5,_ZN36ErrorHandlerTest_GetDiagnostics_TestD2Ev
FNDA:5,_ZN33ErrorHandlerTest_ReportError_TestD0Ev
FNDA:5,_ZN32ErrorHandlerTest_ReportInfo_TestC2Ev
FNDA:5,_ZN35ErrorHandlerTest_ReportWarning_TestD2Ev
FNDA:5,_ZN38ErrorHandlerTest_FormatDiagnostic_TestD0Ev
FNDA:5,_ZN36ErrorHandlerTest_GetDiagnostics_Test8TestBodyEv
FNDA:5,_ZN36ErrorHandlerTest_GetDiagnostics_TestC2Ev
FNDA:5,_ZN38ErrorHandlerTest_FormatDiagnostic_TestC2Ev
FNDA:5,_ZN38ErrorHandlerTest_FormatDiagnostic_Test8TestBodyEv
FNDA:5,_ZN33ErrorHandlerTest_ReportError_TestC2Ev
FNDA:5,_ZN35ErrorHandlerTest_ReportWarning_Test8TestBodyEv
FNDA:30,_ZN16ErrorHandlerTest8TearDownEv
FNDA:5,_ZN35ErrorHandlerTest_ReportWarning_TestC2Ev
FNDA:5,_ZN33ErrorHandlerTest_ReportError_Test8TestBodyEv
FNDA:5,_ZN43ErrorHandlerTest_ReportFatalDiagnostic_TestC2Ev
FNDA:5,_ZN33ErrorHandlerTest_ReportError_TestD2Ev
FNDA:5,_ZN43ErrorHandlerTest_ReportFatalDiagnostic_Test8TestBodyEv
FNDA:5,_ZN32ErrorHandlerTest_ReportInfo_TestD2Ev
FNDA:5,_ZN38ErrorHandlerTest_FormatDiagnostic_TestD2Ev
FNDA:5,_ZN43ErrorHandlerTest_ReportFatalDiagnostic_TestD0Ev
FNDA:5,_ZN36ErrorHandlerTest_GetDiagnostics_TestD0Ev
FNDA:5,_ZN32ErrorHandlerTest_ReportInfo_Test8TestBodyEv
FNDA:5,_ZN35ErrorHandlerTest_ReportWarning_TestD0Ev
FNDA:5,_ZN32ErrorHandlerTest_ReportInfo_TestD0Ev
FNDA:30,_ZN16ErrorHandlerTest5SetUpEv
FNF:26
FNH:26
DA:13,30
DA:14,30
DA:15,30
DA:16,30
DA:18,30
DA:19,30
DA:20,30
DA:21,30
DA:24,20
DA:25,5
DA:26,5
DA:28,5
DA:29,5
DA:30,5
DA:32,10
DA:33,5
DA:34,10
DA:36,20
DA:37,5
DA:38,5
DA:40,5
DA:41,5
DA:42,5
DA:44,10
DA:45,5
DA:46,10
DA:48,20
DA:49,5
DA:50,5
DA:52,5
DA:53,5
DA:54,5
DA:56,10
DA:57,5
DA:58,10
DA:60,20
DA:61,5
DA:63,5
DA:64,5
DA:65,5
DA:67,10
DA:68,5
DA:69,5
DA:71,10
DA:72,5
DA:73,5
DA:75,10
DA:76,5
DA:77,5
DA:78,10
DA:80,20
DA:81,5
DA:83,5
DA:84,5
DA:85,5
DA:86,5
DA:88,5
DA:89,5
DA:90,5
DA:91,5
DA:92,5
DA:93,5
DA:94,5
DA:95,5
DA:96,5
DA:97,5
DA:98,10
DA:102,20
DA:103,5
DA:106,5
DA:109,5
DA:110,5
DA:111,10
LF:73
LH:73
end_of_record
TN:
SF:/workspace/github/compiler/tests/ir_test.cpp
FN:5,_ZN27IRTest_BasicGeneration_TestC2Ev
FN:5,_ZN27IRTest_BasicGeneration_TestD2Ev
FN:5,_ZN27IRTest_BasicGeneration_TestD0Ev
FN:5,_ZN27IRTest_BasicGeneration_Test8TestBodyEv
FNDA:5,_ZN27IRTest_BasicGeneration_TestD2Ev
FNDA:5,_ZN27IRTest_BasicGeneration_TestD0Ev
FNDA:5,_ZN27IRTest_BasicGeneration_Test8TestBodyEv
FNDA:5,_ZN27IRTest_BasicGeneration_TestC2Ev
FNF:4
FNH:4
DA:5,20
DA:7,5
LF:2
LH:2
end_of_record
TN:
SF:/workspace/github/compiler/tests/lexer_test.cpp
FN:12,_ZN25LexerTest_EmptyInput_TestD0Ev
FN:12,_ZN25LexerTest_EmptyInput_TestD2Ev
FN:12,_ZN25LexerTest_EmptyInput_TestC2Ev
FN:12,_ZN25LexerTest_EmptyInput_Test8TestBodyEv
FN:20,_ZN26LexerTest_Identifiers_Test8TestBodyEv
FN:20,_ZN26LexerTest_Identifiers_TestD0Ev
FN:20,_ZN26LexerTest_Identifiers_TestD2Ev
FN:20,_ZN26LexerTest_Identifiers_TestC2Ev
FN:37,_ZN23LexerTest_Keywords_TestD0Ev
FN:37,_ZN23LexerTest_Keywords_TestD2Ev
FN:37,_ZN23LexerTest_Keywords_Test8TestBodyEv
FN:37,_ZN23LexerTest_Keywords_TestC2Ev
FN:51,_ZN24LexerTest_Operators_Test8TestBodyEv
FN:51,_ZN24LexerTest_Operators_TestD2Ev
FN:51,_ZN24LexerTest_Operators_TestD0Ev
FN:51,_ZN24LexerTest_Operators_TestC2Ev
FN:80,_ZN23LexerTest_Literals_Test8TestBodyEv
FN:80,_ZN23LexerTest_Literals_TestD2Ev
FN:80,_ZN23LexerTest_Literals_TestC2Ev
FN:80,_ZN23LexerTest_Literals_TestD0Ev
FN:97,_ZN26LexerTest_Punctuation_TestC2Ev
FN:97,_ZN26LexerTest_Punctuation_TestD0Ev
FN:97,_ZN26LexerTest_Punctuation_Test8TestBodyEv
FN:97,_ZN26LexerTest_Punctuation_TestD2Ev
FN:117,_ZN23LexerTest_Comments_Test8TestBodyEv
FN:117,_ZN23LexerTest_Comments_TestC2Ev
FN:117,_ZN23LexerTest_Comments_TestD0Ev
FN:117,_ZN23LexerTest_Comments_TestD2Ev
FN:131,_ZN29LexerTest_ComplexExample_TestD0Ev
FN:131,_ZN29LexerTest_ComplexExample_Test8TestBodyEv
FN:131,_ZN29LexerTest_ComplexExample_TestC2Ev
FN:131,_ZN29LexerTest_ComplexExample_TestD2Ev
FN:166,main
FNDA:5,_ZN23LexerTest_Keywords_TestD0Ev
FNDA:5,_ZN25LexerTest_EmptyInput_TestC2Ev
FNDA:5,_ZN23LexerTest_Comments_TestD2Ev
FNDA:5,_ZN24LexerTest_Operators_TestD0Ev
FNDA:5,_ZN26LexerTest_Identifiers_TestD2Ev
FNDA:5,_ZN23LexerTest_Literals_TestC2Ev
FNDA:5,_ZN23LexerTest_Keywords_TestD2Ev
FNDA:5,_ZN24LexerTest_Operators_TestC2Ev
FNDA:5,_ZN23LexerTest_Keywords_Test8TestBodyEv
FNDA:5,_ZN25LexerTest_EmptyInput_Test8TestBodyEv
FNDA:5,_ZN23LexerTest_Keywords_TestC2Ev
FNDA:5,_ZN26LexerTest_Identifiers_TestC2Ev
FNDA:5,_ZN23LexerTest_Literals_TestD0Ev
FNDA:5,_ZN23LexerTest_Comments_Test8TestBodyEv
FNDA:5,_ZN25LexerTest_EmptyInput_TestD0Ev
FNDA:5,_ZN26LexerTest_Punctuation_TestD0Ev
FNDA:5,_ZN26LexerTest_Punctuation_TestC2Ev
FNDA:5,_ZN29LexerTest_ComplexExample_TestD0Ev
FNDA:5,_ZN23LexerTest_Literals_Test8TestBodyEv
FNDA:5,_ZN25LexerTest_EmptyInput_TestD2Ev
FNDA:5,_ZN29LexerTest_ComplexExample_Test8TestBodyEv
FNDA:5,main
FNDA:5,_ZN24LexerTest_Operators_Test8TestBodyEv
FNDA:5,_ZN26LexerTest_Identifiers_Test8TestBodyEv
FNDA:5,_ZN23LexerTest_Literals_TestD2Ev
FNDA:5,_ZN29LexerTest_ComplexExample_TestC2Ev
FNDA:5,_ZN26LexerTest_Punctuation_Test8TestBodyEv
FNDA:5,_ZN26LexerTest_Punctuation_TestD2Ev
FNDA:5,_ZN23LexerTest_Comments_TestD0Ev
FNDA:5,_ZN26LexerTest_Identifiers_TestD0Ev
FNDA:5,_ZN29LexerTest_ComplexExample_TestD2Ev
FNDA:5,_ZN23LexerTest_Comments_TestC2Ev
FNDA:5,_ZN24LexerTest_Operators_TestD2Ev
FNF:33
FNH:33
DA:12,20
DA:13,5
DA:14,5
DA:16,5
DA:17,5
DA:18,5
DA:20,20
DA:21,5
DA:22,5
DA:24,5
DA:25,5
DA:26,5
DA:27,5
DA:28,5
DA:29,5
DA:30,5
DA:31,5
DA:32,5
DA:33,5
DA:34,5
DA:35,5
DA:37,20
DA:38,5
DA:39,5
DA:41,5
DA:42,5
DA:43,5
DA:44,5
DA:45,5
DA:46,5
DA:47,5
DA:48,5
DA:49,5
DA:51,20
DA:52,5
DA:53,5
DA:55,5
DA:56,5
DA:57,5
DA:58,5
DA:59,5
DA:60,5
DA:61,5
DA:62,5
DA:63,5
DA:64,5
DA:65,5
DA:66,5
DA:67,5
DA:68,5
DA:69,5
DA:70,5
DA:71,5
DA:72,5
DA:73,5
DA:74,5
DA:75,5
DA:76,5
DA:77,5
DA:78,5
DA:80,20
DA:81,5
DA:82,5
DA:84,5
DA:85,5
DA:86,5
DA:87,5
DA:88,5
DA:89,5
DA:90,5
DA:91,5
DA:92,5
DA:93,5
DA:94,5
DA:95,5
DA:97,20
DA:98,5
DA:99,5
DA:101,5
DA:102,5
DA:103,5
DA:104,5
DA:105,5
DA:106,5
DA:107,5
DA:108,5
DA:109,5
DA:110,5
DA:111,5
DA:112,5
DA:113,5
DA:114,5
DA:115,5
DA:117,20
DA:118,5
DA:119,5
DA:121,5
DA:122,5
DA:123,5
DA:124,5
DA:125,5
DA:126,5
DA:127,5
DA:128,5
DA:129,5
DA:131,20
DA:132,5
DA:148,5
DA:149,5
DA:153,5
DA:155,5
DA:156,5
DA:158,5
DA:159,5
DA:162,5
DA:163,5
DA:164,5
DA:166,5
DA:167,5
DA:168,5
LF:120
LH:120
end_of_record
TN:
SF:/workspace/github/compiler/tests/optimizer_test.cpp
FN:5,_ZN36OptimizerTest_BasicOptimization_TestC2Ev
FN:5,_ZN36OptimizerTest_BasicOptimization_TestD0Ev
FN:5,_ZN36OptimizerTest_BasicOptimization_Test8TestBodyEv
FN:5,_ZN36OptimizerTest_BasicOptimization_TestD2Ev
FNDA:5,_ZN36OptimizerTest_BasicOptimization_TestD2Ev
FNDA:5,_ZN36OptimizerTest_BasicOptimization_Test8TestBodyEv
FNDA:5,_ZN36OptimizerTest_BasicOptimization_TestD0Ev
FNDA:5,_ZN36OptimizerTest_BasicOptimization_TestC2Ev
FNF:4
FNH:4
DA:5,20
DA:7,5
LF:2
LH:2
end_of_record
TN:
SF:/workspace/github/compiler/tests/parser_test.cpp
FN:5,_ZN28ParserTest_BasicParsing_TestD0Ev
FN:5,_ZN28ParserTest_BasicParsing_TestD2Ev
FN:5,_ZN28ParserTest_BasicParsing_Test8TestBodyEv
FN:5,_ZN28ParserTest_BasicParsing_TestC2Ev
FNDA:5,_ZN28ParserTest_BasicParsing_TestC2Ev
FNDA:5,_ZN28ParserTest_BasicParsing_TestD0Ev
FNDA:5,_ZN28ParserTest_BasicParsing_TestD2Ev
FNDA:5,_ZN28ParserTest_BasicParsing_Test8TestBodyEv
FNF:4
FNH:4
DA:5,20
DA:7,5
LF:2
LH:2
end_of_record
TN:
SF:/workspace/github/compiler/tests/semantic_test.cpp
FN:5,_ZN31SemanticTest_BasicAnalysis_TestC2Ev
FN:5,_ZN31SemanticTest_BasicAnalysis_TestD0Ev
FN:5,_ZN31SemanticTest_BasicAnalysis_TestD2Ev
FN:5,_ZN31SemanticTest_BasicAnalysis_Test8TestBodyEv
FNDA:5,_ZN31SemanticTest_BasicAnalysis_TestC2Ev
FNDA:5,_ZN31SemanticTest_BasicAnalysis_TestD0Ev
FNDA:5,_ZN31SemanticTest_BasicAnalysis_Test8TestBodyEv
FNDA:5,_ZN31SemanticTest_BasicAnalysis_TestD2Ev
FNF:4
FNH:4
DA:5,20
DA:7,5
LF:2
LH:2
end_of_record
